target datalayout = "e-m:e-p270:32:32-p271:32:32-p272:64:64-i64:64-i128:128-f80:128-n8:16:32:64-S128"
target triple = "x86_64-pc-linux-gnu"

%struct._DOT11DECRYPT_SEC_ASSOCIATION_ID = type { [6 x i8], [6 x i8] }
%struct._DOT11DECRYPT_SEC_ASSOCIATION = type { ptr, %struct._DOT11DECRYPT_SEC_ASSOCIATION_ID, ptr, i8, i8, %struct.anon }
%struct.anon = type { i8, [32 x i8], i32, i32, i32, [88 x i8], i32 }
%struct._DOT11DECRYPT_KEY_ITEM = type { i8, %union.DOT11DECRYPT_KEY_ITEMDATA, %struct.DOT11DECRYPT_KEY_ITEMDATA_TK, %struct.DOT11DECRYPT_KEY_ITEMDATA_MSK, %struct.DOT11DECRYPT_KEY_ITEMDATA_PWD }
%union.DOT11DECRYPT_KEY_ITEMDATA = type { %struct.DOT11DECRYPT_KEY_ITEMDATA_WEP, [104 x i8] }
%struct.DOT11DECRYPT_KEY_ITEMDATA_WEP = type { [32 x i8], i64 }
%struct.DOT11DECRYPT_KEY_ITEMDATA_TK = type { [32 x i8], i8 }
%struct.DOT11DECRYPT_KEY_ITEMDATA_MSK = type { [128 x i8], i8 }
%struct.DOT11DECRYPT_KEY_ITEMDATA_PWD = type { [63 x i8], i64, [32 x i8], i64 }
%struct.DOT11DECRYPT_KEY_ITEMDATA_WPA = type { [48 x i8], [88 x i8], i8, i8, i8, i8 }

; Function Attrs: alwaysinline nounwind
define internal ptr @memset.inline(ptr %0, i32 %1, i64 %2) #2 {
  %4 = alloca ptr, align 8
  %5 = alloca i32, align 4
  %6 = alloca i64, align 8
  store ptr %0, ptr %4, align 8
  store i32 %1, ptr %5, align 4
  store i64 %2, ptr %6, align 8
  %7 = load ptr, ptr %4, align 8
  %8 = load i32, ptr %5, align 4
  %9 = load i64, ptr %6, align 8
  %10 = load ptr, ptr %4, align 8
  %11 = call i64 @llvm.objectsize.i64.p0(ptr %10, i1 false, i1 true, i1 true)
  %12 = call ptr @__memset_chk(ptr noundef %7, i32 noundef %8, i64 noundef %9, i64 noundef %11) #16
  ret ptr %12
}

; Function Attrs: alwaysinline nounwind
define internal ptr @memcpy.inline(ptr noalias %0, ptr noalias %1, i64 %2) #2 {
  %4 = alloca ptr, align 8
  %5 = alloca ptr, align 8
  %6 = alloca i64, align 8
  store ptr %0, ptr %4, align 8
  store ptr %1, ptr %5, align 8
  store i64 %2, ptr %6, align 8
  %7 = load ptr, ptr %4, align 8
  %8 = load ptr, ptr %5, align 8
  %9 = load i64, ptr %6, align 8
  %10 = load ptr, ptr %4, align 8
  %11 = call i64 @llvm.objectsize.i64.p0(ptr %10, i1 false, i1 true, i1 true)
  %12 = call ptr @__memcpy_chk(ptr noundef %7, ptr noundef %8, i64 noundef %9, i64 noundef %11) #16
  ret ptr %12
}

; Function Attrs: nounwind null_pointer_is_valid sspstrong uwtable
define internal void @Dot11DecryptCopyKey(ptr noundef %0, ptr noundef %1) #4 {
  %3 = alloca ptr, align 8
  %4 = alloca ptr, align 8
  store ptr %0, ptr %3, align 8
  store ptr %1, ptr %4, align 8
  %5 = load ptr, ptr %4, align 8
  %6 = icmp ne ptr %5, null
  br i1 %6, label %7, label %122

7:                                                ; preds = %2
  %8 = load ptr, ptr %3, align 8
  %9 = getelementptr inbounds nuw %struct._DOT11DECRYPT_SEC_ASSOCIATION, ptr %8, i32 0, i32 2
  %10 = load ptr, ptr %9, align 8
  %11 = icmp ne ptr %10, null
  br i1 %11, label %12, label %18

12:                                               ; preds = %7
  %13 = load ptr, ptr %4, align 8
  %14 = load ptr, ptr %3, align 8
  %15 = getelementptr inbounds nuw %struct._DOT11DECRYPT_SEC_ASSOCIATION, ptr %14, i32 0, i32 2
  %16 = load ptr, ptr %15, align 8
  %17 = call ptr @memcpy.inline(ptr noundef %13, ptr noundef %16, i64 noundef 432) #16
  br label %21

18:                                               ; preds = %7
  %19 = load ptr, ptr %4, align 8
  %20 = call ptr @memset.inline(ptr noundef %19, i32 noundef 0, i64 noundef 432) #16
  br label %21

21:                                               ; preds = %18, %12
  %22 = load ptr, ptr %3, align 8
  %23 = getelementptr inbounds nuw %struct._DOT11DECRYPT_SEC_ASSOCIATION, ptr %22, i32 0, i32 5
  %24 = getelementptr inbounds nuw %struct.anon, ptr %23, i32 0, i32 6
  %25 = load i32, ptr %24, align 4
  %26 = trunc i32 %25 to i8
  %27 = load ptr, ptr %4, align 8
  %28 = getelementptr inbounds nuw %struct._DOT11DECRYPT_KEY_ITEM, ptr %27, i32 0, i32 1
  %29 = getelementptr inbounds nuw %struct.DOT11DECRYPT_KEY_ITEMDATA_WPA, ptr %28, i32 0, i32 3
  store i8 %26, ptr %29, align 1
  %30 = load ptr, ptr %4, align 8
  %31 = getelementptr inbounds nuw %struct._DOT11DECRYPT_KEY_ITEM, ptr %30, i32 0, i32 1
  %32 = getelementptr inbounds nuw %struct.DOT11DECRYPT_KEY_ITEMDATA_WPA, ptr %31, i32 0, i32 1
  %33 = getelementptr inbounds [88 x i8], ptr %32, i64 0, i64 0
  %34 = load ptr, ptr %3, align 8
  %35 = getelementptr inbounds nuw %struct._DOT11DECRYPT_SEC_ASSOCIATION, ptr %34, i32 0, i32 5
  %36 = getelementptr inbounds nuw %struct.anon, ptr %35, i32 0, i32 5
  %37 = getelementptr inbounds [88 x i8], ptr %36, i64 0, i64 0
  %38 = load ptr, ptr %3, align 8
  %39 = getelementptr inbounds nuw %struct._DOT11DECRYPT_SEC_ASSOCIATION, ptr %38, i32 0, i32 5
  %40 = getelementptr inbounds nuw %struct.anon, ptr %39, i32 0, i32 6
  %41 = load i32, ptr %40, align 4
  %42 = sext i32 %41 to i64
  %43 = call ptr @memcpy.inline(ptr noundef %33, ptr noundef %37, i64 noundef %42) #16
  %44 = load ptr, ptr %3, align 8
  %45 = getelementptr inbounds nuw %struct._DOT11DECRYPT_SEC_ASSOCIATION, ptr %44, i32 0, i32 5
  %46 = getelementptr inbounds nuw %struct.anon, ptr %45, i32 0, i32 2
  %47 = load i32, ptr %46, align 4
  %48 = trunc i32 %47 to i8
  %49 = load ptr, ptr %4, align 8
  %50 = getelementptr inbounds nuw %struct._DOT11DECRYPT_KEY_ITEM, ptr %49, i32 0, i32 1
  %51 = getelementptr inbounds nuw %struct.DOT11DECRYPT_KEY_ITEMDATA_WPA, ptr %50, i32 0, i32 4
  store i8 %48, ptr %51, align 2
  %52 = load ptr, ptr %3, align 8
  %53 = getelementptr inbounds nuw %struct._DOT11DECRYPT_SEC_ASSOCIATION, ptr %52, i32 0, i32 5
  %54 = getelementptr inbounds nuw %struct.anon, ptr %53, i32 0, i32 3
  %55 = load i32, ptr %54, align 4
  %56 = trunc i32 %55 to i8
  %57 = load ptr, ptr %4, align 8
  %58 = getelementptr inbounds nuw %struct._DOT11DECRYPT_KEY_ITEM, ptr %57, i32 0, i32 1
  %59 = getelementptr inbounds nuw %struct.DOT11DECRYPT_KEY_ITEMDATA_WPA, ptr %58, i32 0, i32 5
  store i8 %56, ptr %59, align 1
  %60 = load ptr, ptr %3, align 8
  %61 = getelementptr inbounds nuw %struct._DOT11DECRYPT_SEC_ASSOCIATION, ptr %60, i32 0, i32 5
  %62 = getelementptr inbounds nuw %struct.anon, ptr %61, i32 0, i32 0
  %63 = load i8, ptr %62, align 4
  %64 = zext i8 %63 to i32
  %65 = icmp eq i32 %64, 1
  br i1 %65, label %66, label %69

66:                                               ; preds = %21
  %67 = load ptr, ptr %4, align 8
  %68 = getelementptr inbounds nuw %struct._DOT11DECRYPT_KEY_ITEM, ptr %67, i32 0, i32 0
  store i8 100, ptr %68, align 8
  br label %121

69:                                               ; preds = %21
  %70 = load ptr, ptr %3, align 8
  %71 = getelementptr inbounds nuw %struct._DOT11DECRYPT_SEC_ASSOCIATION, ptr %70, i32 0, i32 5
  %72 = getelementptr inbounds nuw %struct.anon, ptr %71, i32 0, i32 0
  %73 = load i8, ptr %72, align 4
  %74 = zext i8 %73 to i32
  %75 = icmp eq i32 %74, 0
  br i1 %75, label %90, label %76

76:                                               ; preds = %69
  %77 = load ptr, ptr %3, align 8
  %78 = getelementptr inbounds nuw %struct._DOT11DECRYPT_SEC_ASSOCIATION, ptr %77, i32 0, i32 5
  %79 = getelementptr inbounds nuw %struct.anon, ptr %78, i32 0, i32 0
  %80 = load i8, ptr %79, align 4
  %81 = zext i8 %80 to i32
  %82 = icmp eq i32 %81, 3
  br i1 %82, label %90, label %83

83:                                               ; preds = %76
  %84 = load ptr, ptr %3, align 8
  %85 = getelementptr inbounds nuw %struct._DOT11DECRYPT_SEC_ASSOCIATION, ptr %84, i32 0, i32 5
  %86 = getelementptr inbounds nuw %struct.anon, ptr %85, i32 0, i32 0
  %87 = load i8, ptr %86, align 4
  %88 = zext i8 %87 to i32
  %89 = icmp eq i32 %88, 2
  br i1 %89, label %90, label %120

90:                                               ; preds = %83, %76, %69
  %91 = load ptr, ptr %3, align 8
  %92 = getelementptr inbounds nuw %struct._DOT11DECRYPT_SEC_ASSOCIATION, ptr %91, i32 0, i32 5
  %93 = getelementptr inbounds nuw %struct.anon, ptr %92, i32 0, i32 3
  %94 = load i32, ptr %93, align 4
  switch i32 %94, label %116 [
    i32 1, label %95
    i32 2, label %98
    i32 4, label %101
    i32 5, label %104
    i32 8, label %107
    i32 9, label %110
    i32 10, label %113
  ]

95:                                               ; preds = %90
  %96 = load ptr, ptr %4, align 8
  %97 = getelementptr inbounds nuw %struct._DOT11DECRYPT_KEY_ITEM, ptr %96, i32 0, i32 0
  store i8 1, ptr %97, align 8
  br label %119

98:                                               ; preds = %90
  %99 = load ptr, ptr %4, align 8
  %100 = getelementptr inbounds nuw %struct._DOT11DECRYPT_KEY_ITEM, ptr %99, i32 0, i32 0
  store i8 100, ptr %100, align 8
  br label %119

101:                                              ; preds = %90
  %102 = load ptr, ptr %4, align 8
  %103 = getelementptr inbounds nuw %struct._DOT11DECRYPT_KEY_ITEM, ptr %102, i32 0, i32 0
  store i8 101, ptr %103, align 8
  br label %119

104:                                              ; preds = %90
  %105 = load ptr, ptr %4, align 8
  %106 = getelementptr inbounds nuw %struct._DOT11DECRYPT_KEY_ITEM, ptr %105, i32 0, i32 0
  store i8 2, ptr %106, align 8
  br label %119

107:                                              ; preds = %90
  %108 = load ptr, ptr %4, align 8
  %109 = getelementptr inbounds nuw %struct._DOT11DECRYPT_KEY_ITEM, ptr %108, i32 0, i32 0
  store i8 103, ptr %109, align 8
  br label %119

110:                                              ; preds = %90
  %111 = load ptr, ptr %4, align 8
  %112 = getelementptr inbounds nuw %struct._DOT11DECRYPT_KEY_ITEM, ptr %111, i32 0, i32 0
  store i8 104, ptr %112, align 8
  br label %119

113:                                              ; preds = %90
  %114 = load ptr, ptr %4, align 8
  %115 = getelementptr inbounds nuw %struct._DOT11DECRYPT_KEY_ITEM, ptr %114, i32 0, i32 0
  store i8 102, ptr %115, align 8
  br label %119

116:                                              ; preds = %90
  %117 = load ptr, ptr %4, align 8
  %118 = getelementptr inbounds nuw %struct._DOT11DECRYPT_KEY_ITEM, ptr %117, i32 0, i32 0
  store i8 -1, ptr %118, align 8
  br label %119

119:                                              ; preds = %116, %113, %110, %107, %104, %101, %98, %95
  br label %120

120:                                              ; preds = %119, %83
  br label %121

121:                                              ; preds = %120, %66
  br label %122

122:                                              ; preds = %121, %2
  ret void
}