; Function Attrs: nofree nounwind null_pointer_is_valid sspstrong memory(readwrite, inaccessiblemem: none) uwtable
define internal fastcc void @Dot11DecryptCopyKey(ptr noundef nonnull readonly captures(none) %0, ptr noundef %1) unnamed_addr #3 {
  %.not = icmp eq ptr %1, null
  br i1 %.not, label %31, label %3

3:                                                ; preds = %2
  %4 = getelementptr inbounds nuw i8, ptr %0, i64 24
  %5 = load ptr, ptr %4, align 8
  %.not30 = icmp eq ptr %5, null
  br i1 %.not30, label %7, label %6

6:                                                ; preds = %3
  tail call void @llvm.memcpy.p0.p0.i64(ptr noundef nonnull align 1 dereferenceable(432) %1, ptr noundef nonnull align 1 dereferenceable(432) %5, i64 noundef 432, i1 noundef false) #15
  br label %8

7:                                                ; preds = %3
  tail call void @llvm.memset.p0.i64(ptr noundef nonnull align 1 dereferenceable(432) %1, i8 noundef 0, i64 noundef 432, i1 noundef false) #15
  br label %8

8:                                                ; preds = %7, %6
  %9 = getelementptr inbounds nuw i8, ptr %0, i64 36
  %10 = getelementptr inbounds nuw i8, ptr %0, i64 172
  %11 = load i32, ptr %10, align 4
  %12 = trunc i32 %11 to i8
  %13 = getelementptr inbounds nuw i8, ptr %1, i64 145
  store i8 %12, ptr %13, align 1
  %14 = getelementptr inbounds nuw i8, ptr %1, i64 56
  %15 = getelementptr inbounds nuw i8, ptr %0, i64 84
  %16 = load i32, ptr %10, align 4
  %17 = sext i32 %16 to i64
  tail call void @llvm.memcpy.p0.p0.i64(ptr noundef nonnull align 1 %14, ptr noundef nonnull align 1 %15, i64 noundef %17, i1 noundef false) #15
  %18 = getelementptr inbounds nuw i8, ptr %0, i64 72
  %19 = load i32, ptr %18, align 4
  %20 = trunc i32 %19 to i8
  %21 = getelementptr inbounds nuw i8, ptr %1, i64 146
  store i8 %20, ptr %21, align 2
  %22 = getelementptr inbounds nuw i8, ptr %0, i64 76
  %23 = load i32, ptr %22, align 4
  %24 = trunc i32 %23 to i8
  %25 = getelementptr inbounds nuw i8, ptr %1, i64 147
  store i8 %24, ptr %25, align 1
  %26 = load i8, ptr %9, align 4
  switch i8 %26, label %31 [
    i8 1, label %.sink.split
    i8 0, label %27
    i8 3, label %27
    i8 2, label %27
  ]

27:                                               ; preds = %8, %8, %8
  %28 = load i32, ptr %22, align 4
  %switch.tableidx = add i32 %28, -1
  %29 = icmp ult i32 %switch.tableidx, 10
  br i1 %29, label %switch.lookup, label %.sink.split

switch.lookup:                                    ; preds = %27
  %30 = zext nneg i32 %switch.tableidx to i64
  %switch.gep = getelementptr inbounds nuw [10 x i8], ptr @switch.table.Dot11DecryptCopyKey, i64 0, i64 %30
  %switch.load = load i8, ptr %switch.gep, align 1
  br label %.sink.split

.sink.split:                                      ; preds = %27, %switch.lookup, %8
  %.sink = phi i8 [ 100, %8 ], [ %switch.load, %switch.lookup ], [ -1, %27 ]
  store i8 %.sink, ptr %1, align 8
  br label %31

31:                                               ; preds = %.sink.split, %8, %2
  ret void
}